target datalayout = "e-m:e-p270:32:32-p271:32:32-p272:64:64-i64:64-i128:128-f80:128-n8:16:32:64-S128"
target triple = "x86_64-pc-linux-gnu"

@.str = private unnamed_addr constant [11 x i8] c"unexpected\00", align 1
@.str.1 = private unnamed_addr constant [43 x i8] c"jq: error: %s (Unix shell quoting issues?)\00", align 1
@.str.2 = private unnamed_addr constant [14 x i8] c"jq: error: %s\00", align 1

; Function Attrs: nounwind uwtable
define dso_local void @yyerror(ptr noundef %0, ptr noundef %1, ptr noundef %2, ptr noundef %3, ptr noundef %4, ptr noundef %5) #0 {
  %7 = alloca ptr, align 8
  %8 = alloca ptr, align 8
  %9 = alloca ptr, align 8
  %10 = alloca ptr, align 8
  %11 = alloca ptr, align 8
  %12 = alloca ptr, align 8
  store ptr %0, ptr %7, align 8, !tbaa !4
  store ptr %1, ptr %8, align 8, !tbaa !8
  store ptr %2, ptr %9, align 8, !tbaa !10
  store ptr %3, ptr %10, align 8, !tbaa !12
  store ptr %4, ptr %11, align 8, !tbaa !14
  store ptr %5, ptr %12, align 8, !tbaa !16
  %13 = load ptr, ptr %9, align 8, !tbaa !10
  %14 = load i32, ptr %13, align 4, !tbaa !18
  %15 = add nsw i32 %14, 1
  store i32 %15, ptr %13, align 4, !tbaa !18
  %16 = load ptr, ptr %12, align 8, !tbaa !16
  %17 = call ptr @strstr(ptr noundef %16, ptr noundef @.str) #7
  %18 = icmp ne ptr %17, null
  br i1 %18, label %19, label %24

19:                                               ; preds = %6
  %20 = load ptr, ptr %10, align 8, !tbaa !12
  %21 = load ptr, ptr %7, align 8, !tbaa !4
  %22 = load ptr, ptr %12, align 8, !tbaa !16
  %23 = load i64, ptr %21, align 4
  call void (ptr, i64, ptr, ...) @locfile_locate(ptr noundef %20, i64 %23, ptr noundef @.str.1, ptr noundef %22)
  br label %29

24:                                               ; preds = %6
  %25 = load ptr, ptr %10, align 8, !tbaa !12
  %26 = load ptr, ptr %7, align 8, !tbaa !4
  %27 = load ptr, ptr %12, align 8, !tbaa !16
  %28 = load i64, ptr %26, align 4
  call void (ptr, i64, ptr, ...) @locfile_locate(ptr noundef %25, i64 %28, ptr noundef @.str.2, ptr noundef %27)
  br label %29

29:                                               ; preds = %24, %19
  ret void
}