; Function Attrs: nounwind uwtable
define dso_local void @yyerror(ptr noundef readonly captures(none) %0, ptr readnone captures(none) %1, ptr noundef captures(none) %2, ptr noundef %3, ptr readnone captures(none) %4, ptr noundef %5) local_unnamed_addr #0 {
  %7 = load i32, ptr %2, align 4, !tbaa !4
  %8 = add nsw i32 %7, 1
  store i32 %8, ptr %2, align 4, !tbaa !4
  %9 = tail call ptr @strstr(ptr noundef nonnull dereferenceable(1) %5, ptr noundef nonnull dereferenceable(1) @.str) #9
  %.not = icmp eq ptr %9, null
  %10 = load i64, ptr %0, align 4
  %.str.2..str.1 = select i1 %.not, ptr @.str.2, ptr @.str.1
  tail call void (ptr, i64, ptr, ...) @locfile_locate(ptr noundef %3, i64 %10, ptr noundef nonnull %.str.2..str.1, ptr noundef nonnull %5) #10
  ret void
}